target datalayout = "e-m:e-p270:32:32-p271:32:32-p272:64:64-i64:64-i128:128-f80:128-n8:16:32:64-S128"
target triple = "x86_64-pc-linux-gnu"

%"class.btConvexHullInternal::Int128" = type { i64, i64 }

; Function Attrs: mustprogress nounwind uwtable
define linkonce_odr dso_local void @_ZN20btConvexHullInternal6Int128C2Emm(ptr noundef nonnull align 8 dereferenceable(16) %0, i64 noundef %1, i64 noundef %2) unnamed_addr #1 comdat align 2 {
  %4 = alloca ptr, align 8
  %5 = alloca i64, align 8
  %6 = alloca i64, align 8
  store ptr %0, ptr %4, align 8, !tbaa !12
  store i64 %1, ptr %5, align 8, !tbaa !14
  store i64 %2, ptr %6, align 8, !tbaa !14
  %7 = load ptr, ptr %4, align 8
  %8 = getelementptr inbounds nuw %"class.btConvexHullInternal::Int128", ptr %7, i32 0, i32 0
  %9 = load i64, ptr %5, align 8, !tbaa !14
  store i64 %9, ptr %8, align 8, !tbaa !23
  %10 = getelementptr inbounds nuw %"class.btConvexHullInternal::Int128", ptr %7, i32 0, i32 1
  %11 = load i64, ptr %6, align 8, !tbaa !14
  store i64 %11, ptr %10, align 8, !tbaa !16
  ret void
}

; Function Attrs: mustprogress nounwind uwtable
define linkonce_odr dso_local void @_ZN20btConvexHullInternal4DMulImjE7shlHalfERm(ptr noundef nonnull align 8 dereferenceable(8) %0) #1 comdat align 2 {
  %2 = alloca ptr, align 8
  store ptr %0, ptr %2, align 8, !tbaa !24
  %3 = load ptr, ptr %2, align 8, !tbaa !24
  %4 = load i64, ptr %3, align 8, !tbaa !14
  %5 = shl i64 %4, 32
  store i64 %5, ptr %3, align 8, !tbaa !14
  ret void
}

; Function Attrs: mustprogress nounwind uwtable
define linkonce_odr dso_local noundef i32 @_ZN20btConvexHullInternal4DMulImjE4highEm(i64 noundef %0) #1 comdat align 2 {
  %2 = alloca i64, align 8
  store i64 %0, ptr %2, align 8, !tbaa !14
  %3 = load i64, ptr %2, align 8, !tbaa !14
  %4 = lshr i64 %3, 32
  %5 = trunc i64 %4 to i32
  ret i32 %5
}

; Function Attrs: mustprogress nounwind uwtable
define linkonce_odr dso_local noundef i64 @_ZN20btConvexHullInternal4DMulImjE3mulEjj(i32 noundef %0, i32 noundef %1) #1 comdat align 2 {
  %3 = alloca i32, align 4
  %4 = alloca i32, align 4
  store i32 %0, ptr %3, align 4, !tbaa !9
  store i32 %1, ptr %4, align 4, !tbaa !9
  %5 = load i32, ptr %3, align 4, !tbaa !9
  %6 = zext i32 %5 to i64
  %7 = load i32, ptr %4, align 4, !tbaa !9
  %8 = zext i32 %7 to i64
  %9 = mul i64 %6, %8
  ret i64 %9
}

; Function Attrs: mustprogress nounwind uwtable
define linkonce_odr dso_local noundef i32 @_ZN20btConvexHullInternal4DMulImjE3lowEm(i64 noundef %0) #1 comdat align 2 {
  %2 = alloca i64, align 8
  store i64 %0, ptr %2, align 8, !tbaa !14
  %3 = load i64, ptr %2, align 8, !tbaa !14
  %4 = trunc i64 %3 to i32
  ret i32 %4
}

; Function Attrs: mustprogress uwtable
define linkonce_odr dso_local { i64, i64 } @_ZNK20btConvexHullInternal6Int128ngEv(ptr noundef nonnull align 8 dereferenceable(16) %0) #2 comdat align 2 {
  %2 = alloca %"class.btConvexHullInternal::Int128", align 8
  %3 = alloca ptr, align 8
  store ptr %0, ptr %3, align 8, !tbaa !12
  %4 = load ptr, ptr %3, align 8
  %5 = getelementptr inbounds nuw %"class.btConvexHullInternal::Int128", ptr %4, i32 0, i32 0
  %6 = load i64, ptr %5, align 8, !tbaa !23
  %7 = sub nsw i64 0, %6
  %8 = getelementptr inbounds nuw %"class.btConvexHullInternal::Int128", ptr %4, i32 0, i32 1
  %9 = load i64, ptr %8, align 8, !tbaa !16
  %10 = xor i64 %9, -1
  %11 = getelementptr inbounds nuw %"class.btConvexHullInternal::Int128", ptr %4, i32 0, i32 0
  %12 = load i64, ptr %11, align 8, !tbaa !23
  %13 = icmp eq i64 %12, 0
  %14 = zext i1 %13 to i64
  %15 = add i64 %10, %14
  call void @_ZN20btConvexHullInternal6Int128C2Emm(ptr noundef nonnull align 8 dereferenceable(16) %2, i64 noundef %7, i64 noundef %15)
  %16 = load { i64, i64 }, ptr %2, align 8
  ret { i64, i64 } %16
}

; Function Attrs: mustprogress uwtable
define linkonce_odr dso_local void @_ZN20btConvexHullInternal4DMulImjE3mulEmmRmS2_(i64 noundef %0, i64 noundef %1, ptr noundef nonnull align 8 dereferenceable(8) %2, ptr noundef nonnull align 8 dereferenceable(8) %3) #2 comdat align 2 {
  %5 = alloca i64, align 8
  %6 = alloca i64, align 8
  %7 = alloca ptr, align 8
  %8 = alloca ptr, align 8
  %9 = alloca i64, align 8
  %10 = alloca i64, align 8
  %11 = alloca i64, align 8
  %12 = alloca i64, align 8
  %13 = alloca i64, align 8
  store i64 %0, ptr %5, align 8, !tbaa !14
  store i64 %1, ptr %6, align 8, !tbaa !14
  store ptr %2, ptr %7, align 8, !tbaa !24
  store ptr %3, ptr %8, align 8, !tbaa !24
  call void @llvm.lifetime.start.p0(i64 8, ptr %9) #13
  %14 = load i64, ptr %5, align 8, !tbaa !14
  %15 = call noundef i32 @_ZN20btConvexHullInternal4DMulImjE3lowEm(i64 noundef %14)
  %16 = load i64, ptr %6, align 8, !tbaa !14
  %17 = call noundef i32 @_ZN20btConvexHullInternal4DMulImjE3lowEm(i64 noundef %16)
  %18 = call noundef i64 @_ZN20btConvexHullInternal4DMulImjE3mulEjj(i32 noundef %15, i32 noundef %17)
  store i64 %18, ptr %9, align 8, !tbaa !14
  call void @llvm.lifetime.start.p0(i64 8, ptr %10) #13
  %19 = load i64, ptr %5, align 8, !tbaa !14
  %20 = call noundef i32 @_ZN20btConvexHullInternal4DMulImjE3lowEm(i64 noundef %19)
  %21 = load i64, ptr %6, align 8, !tbaa !14
  %22 = call noundef i32 @_ZN20btConvexHullInternal4DMulImjE4highEm(i64 noundef %21)
  %23 = call noundef i64 @_ZN20btConvexHullInternal4DMulImjE3mulEjj(i32 noundef %20, i32 noundef %22)
  store i64 %23, ptr %10, align 8, !tbaa !14
  call void @llvm.lifetime.start.p0(i64 8, ptr %11) #13
  %24 = load i64, ptr %5, align 8, !tbaa !14
  %25 = call noundef i32 @_ZN20btConvexHullInternal4DMulImjE4highEm(i64 noundef %24)
  %26 = load i64, ptr %6, align 8, !tbaa !14
  %27 = call noundef i32 @_ZN20btConvexHullInternal4DMulImjE3lowEm(i64 noundef %26)
  %28 = call noundef i64 @_ZN20btConvexHullInternal4DMulImjE3mulEjj(i32 noundef %25, i32 noundef %27)
  store i64 %28, ptr %11, align 8, !tbaa !14
  call void @llvm.lifetime.start.p0(i64 8, ptr %12) #13
  %29 = load i64, ptr %5, align 8, !tbaa !14
  %30 = call noundef i32 @_ZN20btConvexHullInternal4DMulImjE4highEm(i64 noundef %29)
  %31 = load i64, ptr %6, align 8, !tbaa !14
  %32 = call noundef i32 @_ZN20btConvexHullInternal4DMulImjE4highEm(i64 noundef %31)
  %33 = call noundef i64 @_ZN20btConvexHullInternal4DMulImjE3mulEjj(i32 noundef %30, i32 noundef %32)
  store i64 %33, ptr %12, align 8, !tbaa !14
  call void @llvm.lifetime.start.p0(i64 8, ptr %13) #13
  %34 = load i64, ptr %10, align 8, !tbaa !14
  %35 = call noundef i32 @_ZN20btConvexHullInternal4DMulImjE3lowEm(i64 noundef %34)
  %36 = zext i32 %35 to i64
  %37 = load i64, ptr %11, align 8, !tbaa !14
  %38 = call noundef i32 @_ZN20btConvexHullInternal4DMulImjE3lowEm(i64 noundef %37)
  %39 = zext i32 %38 to i64
  %40 = add i64 %36, %39
  store i64 %40, ptr %13, align 8, !tbaa !14
  %41 = load i64, ptr %10, align 8, !tbaa !14
  %42 = call noundef i32 @_ZN20btConvexHullInternal4DMulImjE4highEm(i64 noundef %41)
  %43 = zext i32 %42 to i64
  %44 = load i64, ptr %12, align 8, !tbaa !14
  %45 = add i64 %44, %43
  store i64 %45, ptr %12, align 8, !tbaa !14
  %46 = load i64, ptr %11, align 8, !tbaa !14
  %47 = call noundef i32 @_ZN20btConvexHullInternal4DMulImjE4highEm(i64 noundef %46)
  %48 = zext i32 %47 to i64
  %49 = load i64, ptr %12, align 8, !tbaa !14
  %50 = add i64 %49, %48
  store i64 %50, ptr %12, align 8, !tbaa !14
  %51 = load i64, ptr %13, align 8, !tbaa !14
  %52 = call noundef i32 @_ZN20btConvexHullInternal4DMulImjE4highEm(i64 noundef %51)
  %53 = zext i32 %52 to i64
  %54 = load i64, ptr %12, align 8, !tbaa !14
  %55 = add i64 %54, %53
  store i64 %55, ptr %12, align 8, !tbaa !14
  call void @_ZN20btConvexHullInternal4DMulImjE7shlHalfERm(ptr noundef nonnull align 8 dereferenceable(8) %13)
  %56 = load i64, ptr %13, align 8, !tbaa !14
  %57 = load i64, ptr %9, align 8, !tbaa !14
  %58 = add i64 %57, %56
  store i64 %58, ptr %9, align 8, !tbaa !14
  %59 = load i64, ptr %9, align 8, !tbaa !14
  %60 = load i64, ptr %13, align 8, !tbaa !14
  %61 = icmp ult i64 %59, %60
  br i1 %61, label %62, label %65

62:                                               ; preds = %4
  %63 = load i64, ptr %12, align 8, !tbaa !14
  %64 = add i64 %63, 1
  store i64 %64, ptr %12, align 8, !tbaa !14
  br label %65

65:                                               ; preds = %62, %4
  %66 = load i64, ptr %9, align 8, !tbaa !14
  %67 = load ptr, ptr %7, align 8, !tbaa !24
  store i64 %66, ptr %67, align 8, !tbaa !14
  %68 = load i64, ptr %12, align 8, !tbaa !14
  %69 = load ptr, ptr %8, align 8, !tbaa !24
  store i64 %68, ptr %69, align 8, !tbaa !14
  call void @llvm.lifetime.end.p0(i64 8, ptr %13) #13
  call void @llvm.lifetime.end.p0(i64 8, ptr %12) #13
  call void @llvm.lifetime.end.p0(i64 8, ptr %11) #13
  call void @llvm.lifetime.end.p0(i64 8, ptr %10) #13
  call void @llvm.lifetime.end.p0(i64 8, ptr %9) #13
  ret void
}

; Function Attrs: mustprogress nounwind uwtable
define linkonce_odr dso_local void @_ZN20btConvexHullInternal6Int128C2Ev(ptr noundef nonnull align 8 dereferenceable(16) %0) unnamed_addr #1 comdat align 2 {
  %2 = alloca ptr, align 8
  store ptr %0, ptr %2, align 8, !tbaa !12
  ret void
}

; Function Attrs: mustprogress uwtable
define dso_local { i64, i64 } @_ZN20btConvexHullInternal6Int1283mulEll(i64 noundef %0, i64 noundef %1) #2 align 2 {
  %3 = alloca %"class.btConvexHullInternal::Int128", align 8
  %4 = alloca i64, align 8
  %5 = alloca i64, align 8
  %6 = alloca %"class.btConvexHullInternal::Int128", align 8
  %7 = alloca i8, align 1
  store i64 %0, ptr %4, align 8, !tbaa !14
  store i64 %1, ptr %5, align 8, !tbaa !14
  call void @llvm.lifetime.start.p0(i64 16, ptr %6) #13
  call void @_ZN20btConvexHullInternal6Int128C2Ev(ptr noundef nonnull align 8 dereferenceable(16) %6)
  call void @llvm.lifetime.start.p0(i64 1, ptr %7) #13
  %8 = load i64, ptr %4, align 8, !tbaa !14
  %9 = icmp slt i64 %8, 0
  %10 = zext i1 %9 to i8
  store i8 %10, ptr %7, align 1, !tbaa !18
  %11 = load i8, ptr %7, align 1, !tbaa !18, !range !20, !noundef !21
  %12 = trunc i8 %11 to i1
  br i1 %12, label %13, label %16

13:                                               ; preds = %2
  %14 = load i64, ptr %4, align 8, !tbaa !14
  %15 = sub nsw i64 0, %14
  store i64 %15, ptr %4, align 8, !tbaa !14
  br label %16

16:                                               ; preds = %13, %2
  %17 = load i64, ptr %5, align 8, !tbaa !14
  %18 = icmp slt i64 %17, 0
  br i1 %18, label %19, label %26

19:                                               ; preds = %16
  %20 = load i8, ptr %7, align 1, !tbaa !18, !range !20, !noundef !21
  %21 = trunc i8 %20 to i1
  %22 = xor i1 %21, true
  %23 = zext i1 %22 to i8
  store i8 %23, ptr %7, align 1, !tbaa !18
  %24 = load i64, ptr %5, align 8, !tbaa !14
  %25 = sub nsw i64 0, %24
  store i64 %25, ptr %5, align 8, !tbaa !14
  br label %26

26:                                               ; preds = %19, %16
  %27 = load i64, ptr %4, align 8, !tbaa !14
  %28 = load i64, ptr %5, align 8, !tbaa !14
  %29 = getelementptr inbounds nuw %"class.btConvexHullInternal::Int128", ptr %6, i32 0, i32 0
  %30 = getelementptr inbounds nuw %"class.btConvexHullInternal::Int128", ptr %6, i32 0, i32 1
  call void @_ZN20btConvexHullInternal4DMulImjE3mulEmmRmS2_(i64 noundef %27, i64 noundef %28, ptr noundef nonnull align 8 dereferenceable(8) %29, ptr noundef nonnull align 8 dereferenceable(8) %30)
  %31 = load i8, ptr %7, align 1, !tbaa !18, !range !20, !noundef !21
  %32 = trunc i8 %31 to i1
  br i1 %32, label %33, label %39

33:                                               ; preds = %26
  %34 = call { i64, i64 } @_ZNK20btConvexHullInternal6Int128ngEv(ptr noundef nonnull align 8 dereferenceable(16) %6)
  %35 = getelementptr inbounds nuw { i64, i64 }, ptr %3, i32 0, i32 0
  %36 = extractvalue { i64, i64 } %34, 0
  store i64 %36, ptr %35, align 8
  %37 = getelementptr inbounds nuw { i64, i64 }, ptr %3, i32 0, i32 1
  %38 = extractvalue { i64, i64 } %34, 1
  store i64 %38, ptr %37, align 8
  br label %40

39:                                               ; preds = %26
  call void @llvm.memcpy.p0.p0.i64(ptr align 8 %3, ptr align 8 %6, i64 16, i1 false), !tbaa.struct !22
  br label %40

40:                                               ; preds = %39, %33
  call void @llvm.lifetime.end.p0(i64 1, ptr %7) #13
  call void @llvm.lifetime.end.p0(i64 16, ptr %6) #13
  %41 = load { i64, i64 }, ptr %3, align 8
  ret { i64, i64 } %41
}