; Function Attrs: mustprogress nofree norecurse nosync nounwind willreturn memory(none) uwtable
define dso_local { i64, i64 } @_ZN20btConvexHullInternal6Int1283mulEll(i64 noundef %0, i64 noundef %1) local_unnamed_addr #3 align 2 {
  %spec.select = tail call i64 @llvm.abs.i64(i64 %0, i1 true)
  %.09 = tail call i64 @llvm.abs.i64(i64 %1, i1 true)
  %3 = xor i64 %1, %0
  %.0 = icmp slt i64 %3, 0
  %4 = and i64 %spec.select, 4294967295
  %5 = and i64 %.09, 4294967295
  %6 = mul nuw i64 %5, %4
  %7 = lshr i64 %.09, 32
  %8 = mul nuw nsw i64 %7, %4
  %9 = lshr i64 %spec.select, 32
  %10 = mul nuw nsw i64 %5, %9
  %11 = mul nuw nsw i64 %7, %9
  %12 = and i64 %8, 4294967295
  %13 = and i64 %10, 4294967295
  %14 = add nuw nsw i64 %12, %13
  %15 = lshr i64 %8, 32
  %16 = add nuw nsw i64 %15, %11
  %17 = lshr i64 %10, 32
  %18 = add nuw nsw i64 %16, %17
  %19 = lshr i64 %14, 32
  %20 = add nuw nsw i64 %18, %19
  %21 = shl i64 %14, 32
  %22 = add i64 %21, %6
  %23 = icmp ult i64 %22, %21
  %24 = zext i1 %23 to i64
  %spec.select.i = add nuw nsw i64 %20, %24
  br i1 %.0, label %25, label %31

25:                                               ; preds = %2
  %26 = sub nsw i64 0, %22
  %27 = xor i64 %spec.select.i, -1
  %28 = icmp eq i64 %22, 0
  %29 = zext i1 %28 to i64
  %30 = add nsw i64 %27, %29
  br label %31

31:                                               ; preds = %2, %25
  %.pn17 = phi i64 [ %26, %25 ], [ %22, %2 ]
  %.pn = phi i64 [ %30, %25 ], [ %spec.select.i, %2 ]
  %.fca.0.insert.i.pn = insertvalue { i64, i64 } poison, i64 %.pn17, 0
  %.fca.1.insert.merged = insertvalue { i64, i64 } %.fca.0.insert.i.pn, i64 %.pn, 1
  ret { i64, i64 } %.fca.1.insert.merged
}